target datalayout = "e-m:e-p270:32:32-p271:32:32-p272:64:64-i64:64-i128:128-f80:128-n8:16:32:64-S128"
target triple = "x86_64-unknown-linux-gnu"

%"class.std::basic_ostream" = type { ptr, %"class.std::basic_ios" }
%"class.std::basic_ios" = type { %"class.std::ios_base", ptr, i8, i8, ptr, ptr, ptr, ptr }
%"class.std::ios_base" = type { ptr, i64, i64, i32, i32, i32, ptr, %"struct.std::ios_base::_Words", [8 x %"struct.std::ios_base::_Words"], i32, ptr, %"class.std::locale" }
%"struct.std::ios_base::_Words" = type { ptr, i64 }
%"class.std::locale" = type { ptr }
%class.anon.94 = type { i32 }

@_ZSt4cout = external global %"class.std::basic_ostream", align 8

; Function Attrs: mustprogress uwtable
define internal noundef zeroext i1 @"_ZZ21composition_example_2vEN4$_10clEv"(ptr noundef nonnull align 4 dereferenceable(4) %this) #4 align 2 {
entry:
  %this.addr = alloca ptr, align 8
  store ptr %this, ptr %this.addr, align 8
  %this1 = load ptr, ptr %this.addr, align 8
  %call = call noundef nonnull align 8 dereferenceable(8) ptr @_ZStlsISt11char_traitsIcEERSt13basic_ostreamIcT_ES5_c(ptr noundef nonnull align 8 dereferenceable(8) @_ZSt4cout, i8 noundef signext 10)
  %0 = getelementptr inbounds %class.anon.94, ptr %this1, i32 0, i32 0
  %1 = load i32, ptr %0, align 4
  %dec = add nsw i32 %1, -1
  store i32 %dec, ptr %0, align 4
  %cmp = icmp eq i32 %1, 0
  ret i1 %cmp
}

; Function Attrs: mustprogress nounwind uwtable
define linkonce_odr dso_local noundef ptr @_ZNKSt9_Any_data9_M_accessEv(ptr noundef nonnull align 8 dereferenceable(16) %this) #5 comdat align 2 {
entry:
  %this.addr = alloca ptr, align 8
  store ptr %this, ptr %this.addr, align 8
  %this1 = load ptr, ptr %this.addr, align 8
  %arrayidx = getelementptr inbounds [16 x i8], ptr %this1, i64 0, i64 0
  ret ptr %arrayidx
}

; Function Attrs: mustprogress uwtable
define internal noundef zeroext i1 @"_ZSt13__invoke_implIbRZ21composition_example_2vE4$_10JEET_St14__invoke_otherOT0_DpOT1_"(ptr noundef nonnull align 4 dereferenceable(4) %__f) #4 {
entry:
  %__f.addr = alloca ptr, align 8
  store ptr %__f, ptr %__f.addr, align 8
  %0 = load ptr, ptr %__f.addr, align 8
  %call = call noundef zeroext i1 @"_ZZ21composition_example_2vEN4$_10clEv"(ptr noundef nonnull align 4 dereferenceable(4) %0)
  ret i1 %call
}

; Function Attrs: mustprogress nounwind uwtable
define internal noundef nonnull align 4 dereferenceable(4) ptr @"_ZNKSt9_Any_data9_M_accessIZ21composition_example_2vE4$_10EERKT_v"(ptr noundef nonnull align 8 dereferenceable(16) %this) #5 align 2 {
entry:
  %this.addr = alloca ptr, align 8
  store ptr %this, ptr %this.addr, align 8
  %this1 = load ptr, ptr %this.addr, align 8
  %call = call noundef ptr @_ZNKSt9_Any_data9_M_accessEv(ptr noundef nonnull align 8 dereferenceable(16) %this1) #3
  ret ptr %call
}

; Function Attrs: mustprogress uwtable
define internal noundef zeroext i1 @"_ZSt10__invoke_rIbRZ21composition_example_2vE4$_10JEENSt9enable_ifIX16is_invocable_r_vIT_T0_DpT1_EES3_E4typeEOS4_DpOS5_"(ptr noundef nonnull align 4 dereferenceable(4) %__fn) #4 {
entry:
  %__fn.addr = alloca ptr, align 8
  store ptr %__fn, ptr %__fn.addr, align 8
  %0 = load ptr, ptr %__fn.addr, align 8
  %call = call noundef zeroext i1 @"_ZSt13__invoke_implIbRZ21composition_example_2vE4$_10JEET_St14__invoke_otherOT0_DpOT1_"(ptr noundef nonnull align 4 dereferenceable(4) %0)
  ret i1 %call
}

; Function Attrs: mustprogress nounwind uwtable
define internal noundef ptr @"_ZNSt14_Function_base13_Base_managerIZ21composition_example_2vE4$_10E14_M_get_pointerERKSt9_Any_data"(ptr noundef nonnull align 8 dereferenceable(16) %__source) #5 align 2 {
entry:
  %__source.addr = alloca ptr, align 8
  %__f = alloca ptr, align 8
  store ptr %__source, ptr %__source.addr, align 8
  %0 = load ptr, ptr %__source.addr, align 8
  %call = call noundef nonnull align 4 dereferenceable(4) ptr @"_ZNKSt9_Any_data9_M_accessIZ21composition_example_2vE4$_10EERKT_v"(ptr noundef nonnull align 8 dereferenceable(16) %0) #3
  store ptr %call, ptr %__f, align 8
  %1 = load ptr, ptr %__f, align 8
  ret ptr %1
}

; Function Attrs: mustprogress uwtable
define internal noundef zeroext i1 @"_ZNSt17_Function_handlerIFbvEZ21composition_example_2vE4$_10E9_M_invokeERKSt9_Any_data"(ptr noundef nonnull align 8 dereferenceable(16) %__functor) #4 align 2 {
entry:
  %__functor.addr = alloca ptr, align 8
  store ptr %__functor, ptr %__functor.addr, align 8
  %0 = load ptr, ptr %__functor.addr, align 8
  %call = call noundef ptr @"_ZNSt14_Function_base13_Base_managerIZ21composition_example_2vE4$_10E14_M_get_pointerERKSt9_Any_data"(ptr noundef nonnull align 8 dereferenceable(16) %0) #3
  %call1 = call noundef zeroext i1 @"_ZSt10__invoke_rIbRZ21composition_example_2vE4$_10JEENSt9enable_ifIX16is_invocable_r_vIT_T0_DpT1_EES3_E4typeEOS4_DpOS5_"(ptr noundef nonnull align 4 dereferenceable(4) %call)
  ret i1 %call1
}